target datalayout = "e-m:e-p270:32:32-p271:32:32-p272:64:64-i64:64-i128:128-f80:128-n8:16:32:64-S128"
target triple = "x86_64-pc-linux-gnu"

; Function Attrs: inlinehint nounwind sspstrong willreturn memory(none) uwtable
define internal zeroext i1 @RB_TEST(i64 noundef %0) #10 {
  %2 = alloca i64, align 8
  store i64 %0, ptr %2, align 8, !tbaa !12
  %3 = load i64, ptr %2, align 8, !tbaa !12
  %4 = and i64 %3, -5
  %5 = icmp ne i64 %4, 0
  ret i1 %5
}

; Function Attrs: nounwind sspstrong uwtable
define dso_local i32 @rb_econv_has_convpath_p(ptr noundef %0, ptr noundef %1) #0 {
  %3 = alloca ptr, align 8
  %4 = alloca ptr, align 8
  %5 = alloca i64, align 8
  store ptr %0, ptr %3, align 8, !tbaa !21
  store ptr %1, ptr %4, align 8, !tbaa !21
  call void @llvm.lifetime.start.p0(i64 8, ptr %5) #25
  store i64 4, ptr %5, align 8, !tbaa !12
  %6 = load ptr, ptr %3, align 8, !tbaa !21
  %7 = load ptr, ptr %4, align 8, !tbaa !21
  %8 = call i32 @transcode_search_path(ptr noundef %6, ptr noundef %7, ptr noundef @search_convpath_i, ptr noundef %5)
  %9 = load i64, ptr %5, align 8, !tbaa !12
  %10 = call zeroext i1 @RB_TEST(i64 noundef %9) #31
  %11 = zext i1 %10 to i32
  call void @llvm.lifetime.end.p0(i64 8, ptr %5) #25
  ret i32 %11
}