; Function Attrs: nounwind sspstrong uwtable
define dso_local range(i32 0, 2) i32 @rb_econv_has_convpath_p(ptr noundef %0, ptr noundef %1) local_unnamed_addr #0 {
  %3 = alloca i64, align 8
  call void @llvm.lifetime.start.p0(i64 8, ptr nonnull %3) #22
  store i64 4, ptr %3, align 8, !tbaa !22
  %4 = call fastcc i32 @transcode_search_path(ptr noundef %0, ptr noundef %1, ptr noundef nonnull @search_convpath_i, ptr noundef %3)
  %5 = load i64, ptr %3, align 8, !tbaa !22
  %6 = and i64 %5, -5
  %7 = icmp ne i64 %6, 0
  %8 = zext i1 %7 to i32
  call void @llvm.lifetime.end.p0(i64 8, ptr nonnull %3) #22
  ret i32 %8
}